target datalayout = "e-m:e-p270:32:32-p271:32:32-p272:64:64-i64:64-i128:128-f80:128-n8:16:32:64-S128"
target triple = "x86_64-unknown-linux-gnu"

%"class.std::__cxx11::basic_string" = type { %"struct.std::__cxx11::basic_string<char>::_Alloc_hider", i64, %union.anon }
%"struct.std::__cxx11::basic_string<char>::_Alloc_hider" = type { ptr }
%union.anon = type { i64, [8 x i8] }
%"struct.flatbuffers::(anonymous namespace)::ImportDefinition" = type { %"class.std::__cxx11::basic_string", %"class.std::__cxx11::basic_string", %"class.std::__cxx11::basic_string", %"class.std::__cxx11::basic_string", %"class.std::__cxx11::basic_string", %"class.std::__cxx11::basic_string", ptr, ptr }

; Function Attrs: mustprogress uwtable
define internal void @_ZN11flatbuffers12_GLOBAL__N_116ImportDefinitionC2ERKS1_(ptr noundef nonnull align 8 dereferenceable(208) %this, ptr noundef nonnull align 8 dereferenceable(208) %0) unnamed_addr #4 align 2 personality ptr @__gxx_personality_v0 {
entry:
  %this.addr = alloca ptr, align 8
  %.addr = alloca ptr, align 8
  %exn.slot = alloca ptr, align 8
  %ehselector.slot = alloca i32, align 4
  store ptr %this, ptr %this.addr, align 8
  store ptr %0, ptr %.addr, align 8
  %this1 = load ptr, ptr %this.addr, align 8
  %name = getelementptr inbounds %"struct.flatbuffers::(anonymous namespace)::ImportDefinition", ptr %this1, i32 0, i32 0
  %1 = load ptr, ptr %.addr, align 8
  %name2 = getelementptr inbounds %"struct.flatbuffers::(anonymous namespace)::ImportDefinition", ptr %1, i32 0, i32 0
  call void @_ZNSt7__cxx1112basic_stringIcSt11char_traitsIcESaIcEEC1ERKS4_(ptr noundef nonnull align 8 dereferenceable(32) %name, ptr noundef nonnull align 8 dereferenceable(32) %name2)
  %import_statement = getelementptr inbounds %"struct.flatbuffers::(anonymous namespace)::ImportDefinition", ptr %this1, i32 0, i32 1
  %2 = load ptr, ptr %.addr, align 8
  %import_statement3 = getelementptr inbounds %"struct.flatbuffers::(anonymous namespace)::ImportDefinition", ptr %2, i32 0, i32 1
  invoke void @_ZNSt7__cxx1112basic_stringIcSt11char_traitsIcESaIcEEC1ERKS4_(ptr noundef nonnull align 8 dereferenceable(32) %import_statement, ptr noundef nonnull align 8 dereferenceable(32) %import_statement3)
          to label %invoke.cont unwind label %lpad

invoke.cont:                                      ; preds = %entry
  %export_statement = getelementptr inbounds %"struct.flatbuffers::(anonymous namespace)::ImportDefinition", ptr %this1, i32 0, i32 2
  %3 = load ptr, ptr %.addr, align 8
  %export_statement4 = getelementptr inbounds %"struct.flatbuffers::(anonymous namespace)::ImportDefinition", ptr %3, i32 0, i32 2
  invoke void @_ZNSt7__cxx1112basic_stringIcSt11char_traitsIcESaIcEEC1ERKS4_(ptr noundef nonnull align 8 dereferenceable(32) %export_statement, ptr noundef nonnull align 8 dereferenceable(32) %export_statement4)
          to label %invoke.cont6 unwind label %lpad5

invoke.cont6:                                     ; preds = %invoke.cont
  %bare_file_path = getelementptr inbounds %"struct.flatbuffers::(anonymous namespace)::ImportDefinition", ptr %this1, i32 0, i32 3
  %4 = load ptr, ptr %.addr, align 8
  %bare_file_path7 = getelementptr inbounds %"struct.flatbuffers::(anonymous namespace)::ImportDefinition", ptr %4, i32 0, i32 3
  invoke void @_ZNSt7__cxx1112basic_stringIcSt11char_traitsIcESaIcEEC1ERKS4_(ptr noundef nonnull align 8 dereferenceable(32) %bare_file_path, ptr noundef nonnull align 8 dereferenceable(32) %bare_file_path7)
          to label %invoke.cont9 unwind label %lpad8

invoke.cont9:                                     ; preds = %invoke.cont6
  %rel_file_path = getelementptr inbounds %"struct.flatbuffers::(anonymous namespace)::ImportDefinition", ptr %this1, i32 0, i32 4
  %5 = load ptr, ptr %.addr, align 8
  %rel_file_path10 = getelementptr inbounds %"struct.flatbuffers::(anonymous namespace)::ImportDefinition", ptr %5, i32 0, i32 4
  invoke void @_ZNSt7__cxx1112basic_stringIcSt11char_traitsIcESaIcEEC1ERKS4_(ptr noundef nonnull align 8 dereferenceable(32) %rel_file_path, ptr noundef nonnull align 8 dereferenceable(32) %rel_file_path10)
          to label %invoke.cont12 unwind label %lpad11

invoke.cont12:                                    ; preds = %invoke.cont9
  %object_name = getelementptr inbounds %"struct.flatbuffers::(anonymous namespace)::ImportDefinition", ptr %this1, i32 0, i32 5
  %6 = load ptr, ptr %.addr, align 8
  %object_name13 = getelementptr inbounds %"struct.flatbuffers::(anonymous namespace)::ImportDefinition", ptr %6, i32 0, i32 5
  invoke void @_ZNSt7__cxx1112basic_stringIcSt11char_traitsIcESaIcEEC1ERKS4_(ptr noundef nonnull align 8 dereferenceable(32) %object_name, ptr noundef nonnull align 8 dereferenceable(32) %object_name13)
          to label %invoke.cont15 unwind label %lpad14

invoke.cont15:                                    ; preds = %invoke.cont12
  %dependent = getelementptr inbounds %"struct.flatbuffers::(anonymous namespace)::ImportDefinition", ptr %this1, i32 0, i32 6
  %7 = load ptr, ptr %.addr, align 8
  %dependent16 = getelementptr inbounds %"struct.flatbuffers::(anonymous namespace)::ImportDefinition", ptr %7, i32 0, i32 6
  call void @llvm.memcpy.p0.p0.i64(ptr align 8 %dependent, ptr align 8 %dependent16, i64 16, i1 false)
  ret void

lpad:                                             ; preds = %entry
  %8 = landingpad { ptr, i32 }
          cleanup
  %9 = extractvalue { ptr, i32 } %8, 0
  store ptr %9, ptr %exn.slot, align 8
  %10 = extractvalue { ptr, i32 } %8, 1
  store i32 %10, ptr %ehselector.slot, align 4
  br label %ehcleanup19

lpad5:                                            ; preds = %invoke.cont
  %11 = landingpad { ptr, i32 }
          cleanup
  %12 = extractvalue { ptr, i32 } %11, 0
  store ptr %12, ptr %exn.slot, align 8
  %13 = extractvalue { ptr, i32 } %11, 1
  store i32 %13, ptr %ehselector.slot, align 4
  br label %ehcleanup18

lpad8:                                            ; preds = %invoke.cont6
  %14 = landingpad { ptr, i32 }
          cleanup
  %15 = extractvalue { ptr, i32 } %14, 0
  store ptr %15, ptr %exn.slot, align 8
  %16 = extractvalue { ptr, i32 } %14, 1
  store i32 %16, ptr %ehselector.slot, align 4
  br label %ehcleanup17

lpad11:                                           ; preds = %invoke.cont9
  %17 = landingpad { ptr, i32 }
          cleanup
  %18 = extractvalue { ptr, i32 } %17, 0
  store ptr %18, ptr %exn.slot, align 8
  %19 = extractvalue { ptr, i32 } %17, 1
  store i32 %19, ptr %ehselector.slot, align 4
  br label %ehcleanup

lpad14:                                           ; preds = %invoke.cont12
  %20 = landingpad { ptr, i32 }
          cleanup
  %21 = extractvalue { ptr, i32 } %20, 0
  store ptr %21, ptr %exn.slot, align 8
  %22 = extractvalue { ptr, i32 } %20, 1
  store i32 %22, ptr %ehselector.slot, align 4
  call void @_ZNSt7__cxx1112basic_stringIcSt11char_traitsIcESaIcEED1Ev(ptr noundef nonnull align 8 dereferenceable(32) %rel_file_path) #3
  br label %ehcleanup

ehcleanup:                                        ; preds = %lpad14, %lpad11
  call void @_ZNSt7__cxx1112basic_stringIcSt11char_traitsIcESaIcEED1Ev(ptr noundef nonnull align 8 dereferenceable(32) %bare_file_path) #3
  br label %ehcleanup17

ehcleanup17:                                      ; preds = %ehcleanup, %lpad8
  call void @_ZNSt7__cxx1112basic_stringIcSt11char_traitsIcESaIcEED1Ev(ptr noundef nonnull align 8 dereferenceable(32) %export_statement) #3
  br label %ehcleanup18

ehcleanup18:                                      ; preds = %ehcleanup17, %lpad5
  call void @_ZNSt7__cxx1112basic_stringIcSt11char_traitsIcESaIcEED1Ev(ptr noundef nonnull align 8 dereferenceable(32) %import_statement) #3
  br label %ehcleanup19

ehcleanup19:                                      ; preds = %ehcleanup18, %lpad
  call void @_ZNSt7__cxx1112basic_stringIcSt11char_traitsIcESaIcEED1Ev(ptr noundef nonnull align 8 dereferenceable(32) %name) #3
  br label %eh.resume

eh.resume:                                        ; preds = %ehcleanup19
  %exn = load ptr, ptr %exn.slot, align 8
  %sel = load i32, ptr %ehselector.slot, align 4
  %lpad.val = insertvalue { ptr, i32 } poison, ptr %exn, 0
  %lpad.val20 = insertvalue { ptr, i32 } %lpad.val, i32 %sel, 1
  resume { ptr, i32 } %lpad.val20
}