; Function Attrs: mustprogress uwtable
define internal fastcc void @_ZN11flatbuffers12_GLOBAL__N_116ImportDefinitionC2ERKS1_(ptr noundef nonnull align 8 dereferenceable(208) %this, ptr noundef nonnull align 8 dereferenceable(208) %0) unnamed_addr #3 align 2 personality ptr @__gxx_personality_v0 {
entry:
  tail call void @_ZNSt7__cxx1112basic_stringIcSt11char_traitsIcESaIcEEC1ERKS4_(ptr noundef nonnull align 8 dereferenceable(32) %this, ptr noundef nonnull align 8 dereferenceable(32) %0)
  %import_statement = getelementptr inbounds i8, ptr %this, i64 32
  %import_statement3 = getelementptr inbounds i8, ptr %0, i64 32
  invoke void @_ZNSt7__cxx1112basic_stringIcSt11char_traitsIcESaIcEEC1ERKS4_(ptr noundef nonnull align 8 dereferenceable(32) %import_statement, ptr noundef nonnull align 8 dereferenceable(32) %import_statement3)
          to label %invoke.cont unwind label %lpad

invoke.cont:                                      ; preds = %entry
  %export_statement = getelementptr inbounds i8, ptr %this, i64 64
  %export_statement4 = getelementptr inbounds i8, ptr %0, i64 64
  invoke void @_ZNSt7__cxx1112basic_stringIcSt11char_traitsIcESaIcEEC1ERKS4_(ptr noundef nonnull align 8 dereferenceable(32) %export_statement, ptr noundef nonnull align 8 dereferenceable(32) %export_statement4)
          to label %invoke.cont6 unwind label %lpad5

invoke.cont6:                                     ; preds = %invoke.cont
  %bare_file_path = getelementptr inbounds i8, ptr %this, i64 96
  %bare_file_path7 = getelementptr inbounds i8, ptr %0, i64 96
  invoke void @_ZNSt7__cxx1112basic_stringIcSt11char_traitsIcESaIcEEC1ERKS4_(ptr noundef nonnull align 8 dereferenceable(32) %bare_file_path, ptr noundef nonnull align 8 dereferenceable(32) %bare_file_path7)
          to label %invoke.cont9 unwind label %lpad8

invoke.cont9:                                     ; preds = %invoke.cont6
  %rel_file_path = getelementptr inbounds i8, ptr %this, i64 128
  %rel_file_path10 = getelementptr inbounds i8, ptr %0, i64 128
  invoke void @_ZNSt7__cxx1112basic_stringIcSt11char_traitsIcESaIcEEC1ERKS4_(ptr noundef nonnull align 8 dereferenceable(32) %rel_file_path, ptr noundef nonnull align 8 dereferenceable(32) %rel_file_path10)
          to label %invoke.cont12 unwind label %lpad11

invoke.cont12:                                    ; preds = %invoke.cont9
  %object_name = getelementptr inbounds i8, ptr %this, i64 160
  %object_name13 = getelementptr inbounds i8, ptr %0, i64 160
  invoke void @_ZNSt7__cxx1112basic_stringIcSt11char_traitsIcESaIcEEC1ERKS4_(ptr noundef nonnull align 8 dereferenceable(32) %object_name, ptr noundef nonnull align 8 dereferenceable(32) %object_name13)
          to label %invoke.cont15 unwind label %lpad14

invoke.cont15:                                    ; preds = %invoke.cont12
  %dependent = getelementptr inbounds i8, ptr %this, i64 192
  %dependent16 = getelementptr inbounds i8, ptr %0, i64 192
  tail call void @llvm.memcpy.p0.p0.i64(ptr noundef nonnull align 8 dereferenceable(16) %dependent, ptr noundef nonnull align 8 dereferenceable(16) %dependent16, i64 16, i1 false)
  ret void

lpad:                                             ; preds = %entry
  %1 = landingpad { ptr, i32 }
          cleanup
  br label %ehcleanup19

lpad5:                                            ; preds = %invoke.cont
  %2 = landingpad { ptr, i32 }
          cleanup
  br label %ehcleanup18

lpad8:                                            ; preds = %invoke.cont6
  %3 = landingpad { ptr, i32 }
          cleanup
  br label %ehcleanup17

lpad11:                                           ; preds = %invoke.cont9
  %4 = landingpad { ptr, i32 }
          cleanup
  br label %ehcleanup

lpad14:                                           ; preds = %invoke.cont12
  %5 = landingpad { ptr, i32 }
          cleanup
  tail call void @_ZNSt7__cxx1112basic_stringIcSt11char_traitsIcESaIcEED1Ev(ptr noundef nonnull align 8 dereferenceable(32) %rel_file_path) #21
  br label %ehcleanup

ehcleanup:                                        ; preds = %lpad14, %lpad11
  %.pn = phi { ptr, i32 } [ %5, %lpad14 ], [ %4, %lpad11 ]
  tail call void @_ZNSt7__cxx1112basic_stringIcSt11char_traitsIcESaIcEED1Ev(ptr noundef nonnull align 8 dereferenceable(32) %bare_file_path) #21
  br label %ehcleanup17

ehcleanup17:                                      ; preds = %ehcleanup, %lpad8
  %.pn.pn = phi { ptr, i32 } [ %.pn, %ehcleanup ], [ %3, %lpad8 ]
  tail call void @_ZNSt7__cxx1112basic_stringIcSt11char_traitsIcESaIcEED1Ev(ptr noundef nonnull align 8 dereferenceable(32) %export_statement) #21
  br label %ehcleanup18

ehcleanup18:                                      ; preds = %ehcleanup17, %lpad5
  %.pn.pn.pn = phi { ptr, i32 } [ %.pn.pn, %ehcleanup17 ], [ %2, %lpad5 ]
  tail call void @_ZNSt7__cxx1112basic_stringIcSt11char_traitsIcESaIcEED1Ev(ptr noundef nonnull align 8 dereferenceable(32) %import_statement) #21
  br label %ehcleanup19

ehcleanup19:                                      ; preds = %ehcleanup18, %lpad
  %.pn.pn.pn.pn = phi { ptr, i32 } [ %.pn.pn.pn, %ehcleanup18 ], [ %1, %lpad ]
  tail call void @_ZNSt7__cxx1112basic_stringIcSt11char_traitsIcESaIcEED1Ev(ptr noundef nonnull align 8 dereferenceable(32) %this) #21
  resume { ptr, i32 } %.pn.pn.pn.pn
}